; Function Attrs: mustprogress nofree norecurse nounwind willreturn memory(readwrite, inaccessiblemem: none) uwtable
define void @_ZNK15MainApplication11recentItemsEv(ptr dead_on_unwind noalias nocapture writable writeonly sret(%class.QList) align 8 %0, ptr nocapture noundef nonnull readnone align 8 dereferenceable(216) %1) local_unnamed_addr #16 align 2 personality ptr @__gxx_personality_v0 {
  %3 = load ptr, ptr @_ZL16recent_captures_, align 8
  store ptr %3, ptr %0, align 8
  %4 = getelementptr inbounds i8, ptr %0, i64 8
  %5 = load ptr, ptr getelementptr inbounds (%class.QList, ptr @_ZL16recent_captures_, i64 0, i32 0, i32 1), align 8
  store ptr %5, ptr %4, align 8
  %6 = getelementptr inbounds i8, ptr %0, i64 16
  %7 = load i64, ptr getelementptr inbounds (%class.QList, ptr @_ZL16recent_captures_, i64 0, i32 0, i32 2), align 8
  store i64 %7, ptr %6, align 8
  %.not.i.i.i = icmp eq ptr %3, null
  br i1 %.not.i.i.i, label %_ZN5QListIP19_recent_item_statusEC2ERKS2_.exit, label %8

8:                                                ; preds = %2
  %9 = atomicrmw add ptr %3, i32 1 seq_cst, align 4
  br label %_ZN5QListIP19_recent_item_statusEC2ERKS2_.exit

_ZN5QListIP19_recent_item_statusEC2ERKS2_.exit:   ; preds = %2, %8
  ret void
}